; Function Attrs: mustprogress uwtable
define hidden void @_ZN7nanogui9ImageView9set_imageEPNS_7TextureE(ptr nocapture noundef nonnull align 8 dereferenceable(272) %0, ptr noundef %1) local_unnamed_addr #8 align 2 personality ptr @__gxx_personality_v0 {
  %3 = alloca %"class.std::__cxx11::basic_string", align 8
  %4 = alloca %"class.std::allocator.1", align 1
  %5 = getelementptr inbounds i8, ptr %1, i64 15
  %6 = load i8, ptr %5, align 1
  %.not = icmp eq i8 %6, 0
  br i1 %.not, label %12, label %7

7:                                                ; preds = %2
  %8 = tail call ptr @__cxa_allocate_exception(i64 16) #18
  invoke void @_ZNSt13runtime_errorC1EPKc(ptr noundef nonnull align 8 dereferenceable(16) %8, ptr noundef nonnull @.str.2)
          to label %9 unwind label %10

9:                                                ; preds = %7
  tail call void @__cxa_throw(ptr nonnull %8, ptr nonnull @_ZTISt13runtime_error, ptr nonnull @_ZNSt13runtime_errorD1Ev) #21
  unreachable

10:                                               ; preds = %7
  %11 = landingpad { ptr, i32 }
          cleanup
  tail call void @__cxa_free_exception(ptr %8) #18
  br label %32

12:                                               ; preds = %2
  %13 = getelementptr inbounds i8, ptr %0, i64 176
  %14 = load ptr, ptr %13, align 8
  call void @_ZNSaIcEC1Ev(ptr noundef nonnull align 1 dereferenceable(1) %4) #18
  %15 = invoke noundef ptr @_ZNSt7__cxx1112basic_stringIcSt11char_traitsIcESaIcEE13_M_local_dataEv(ptr noundef nonnull align 8 dereferenceable(32) %3)
          to label %.noexc unwind label %28

.noexc:                                           ; preds = %12
  invoke void @_ZNSt7__cxx1112basic_stringIcSt11char_traitsIcESaIcEE12_Alloc_hiderC1EPcRKS3_(ptr noundef nonnull align 8 dereferenceable(8) %3, ptr noundef %15, ptr noundef nonnull align 1 dereferenceable(1) %4)
          to label %.noexc10 unwind label %28

.noexc10:                                         ; preds = %.noexc
  invoke void @_ZNSt7__cxx1112basic_stringIcSt11char_traitsIcESaIcEE12_M_constructIPKcEEvT_S8_St20forward_iterator_tag(ptr noundef nonnull align 8 dereferenceable(32) %3, ptr noundef nonnull @.str.3, ptr noundef nonnull getelementptr inbounds ([6 x i8], ptr @.str.3, i64 0, i64 5))
          to label %_ZNSt7__cxx1112basic_stringIcSt11char_traitsIcESaIcEEC2IS3_EEPKcRKS3_.exit unwind label %16

16:                                               ; preds = %.noexc10
  %17 = landingpad { ptr, i32 }
          cleanup
  call void @_ZNSaIcED2Ev(ptr noundef nonnull align 1 dereferenceable(1) %3) #18
  br label %.body

_ZNSt7__cxx1112basic_stringIcSt11char_traitsIcESaIcEEC2IS3_EEPKcRKS3_.exit: ; preds = %.noexc10
  invoke void @_ZN7nanogui6Shader11set_textureERKNSt7__cxx1112basic_stringIcSt11char_traitsIcESaIcEEEPNS_7TextureE(ptr noundef nonnull align 8 dereferenceable(125) %14, ptr noundef nonnull align 8 dereferenceable(32) %3, ptr noundef nonnull %1)
          to label %18 unwind label %30

18:                                               ; preds = %_ZNSt7__cxx1112basic_stringIcSt11char_traitsIcESaIcEEC2IS3_EEPKcRKS3_.exit
  call void @_ZNSt7__cxx1112basic_stringIcSt11char_traitsIcESaIcEED1Ev(ptr noundef nonnull align 8 dereferenceable(32) %3) #18
  call void @_ZNSaIcED1Ev(ptr noundef nonnull align 1 dereferenceable(1) %4) #18
  %19 = getelementptr inbounds i8, ptr %0, i64 184
  %20 = load ptr, ptr %19, align 8
  %.not.i = icmp eq ptr %20, %1
  br i1 %.not.i, label %_ZN7nanogui3refINS_7TextureEEaSEPS1_.exit, label %21

21:                                               ; preds = %18
  invoke void @_ZNK7nanogui6Object7inc_refEv(ptr noundef nonnull align 8 dereferenceable(12) %1)
          to label %22 unwind label %25

22:                                               ; preds = %21
  %.pr.i = load ptr, ptr %19, align 8
  %.not7.i = icmp eq ptr %.pr.i, null
  br i1 %.not7.i, label %24, label %23

23:                                               ; preds = %22
  call void @_ZNK7nanogui6Object7dec_refEb(ptr noundef nonnull align 8 dereferenceable(12) %.pr.i, i1 noundef zeroext true) #18
  br label %24

24:                                               ; preds = %23, %22
  store ptr %1, ptr %19, align 8
  br label %_ZN7nanogui3refINS_7TextureEEaSEPS1_.exit

25:                                               ; preds = %21
  %26 = landingpad { ptr, i32 }
          catch ptr null
  %27 = extractvalue { ptr, i32 } %26, 0
  call void @__clang_call_terminate(ptr %27) #19
  unreachable

_ZN7nanogui3refINS_7TextureEEaSEPS1_.exit:        ; preds = %18, %24
  ret void

28:                                               ; preds = %.noexc, %12
  %29 = landingpad { ptr, i32 }
          cleanup
  br label %.body

30:                                               ; preds = %_ZNSt7__cxx1112basic_stringIcSt11char_traitsIcESaIcEEC2IS3_EEPKcRKS3_.exit
  %31 = landingpad { ptr, i32 }
          cleanup
  call void @_ZNSt7__cxx1112basic_stringIcSt11char_traitsIcESaIcEED1Ev(ptr noundef nonnull align 8 dereferenceable(32) %3) #18
  br label %.body

.body:                                            ; preds = %28, %16, %30
  %.pn = phi { ptr, i32 } [ %31, %30 ], [ %29, %28 ], [ %17, %16 ]
  call void @_ZNSaIcED1Ev(ptr noundef nonnull align 1 dereferenceable(1) %4) #18
  br label %32

32:                                               ; preds = %.body, %10
  %.pn8 = phi { ptr, i32 } [ %11, %10 ], [ %.pn, %.body ]
  resume { ptr, i32 } %.pn8
}